target datalayout = "e-m:e-p270:32:32-p271:32:32-p272:64:64-i64:64-i128:128-f80:128-n8:16:32:64-S128"
target triple = "x86_64-pc-linux-gnu"

%struct._rose_ctx_t = type { i32, ptr, ptr, ptr, ptr, ptr, ptr, i32, i8, ptr, i64, %struct.anon, ptr }
%struct.anon = type { i32, i32, i32, ptr, ptr }

@camel_v1_handle = internal global ptr null, align 8
@proto_camel = internal global i32 0, align 4
@camel_v2_handle = internal global ptr null, align 8
@camel_v3_handle = internal global ptr null, align 8
@camel_v4_handle = internal global ptr null, align 8
@global_ssn_range = internal global ptr null, align 8
@.str.1198 = private unnamed_addr constant [6 x i8] c"CAMEL\00", align 1
@.str.1200 = private unnamed_addr constant [6 x i8] c"Camel\00", align 1
@.str.1201 = private unnamed_addr constant [6 x i8] c"camel\00", align 1
@camel_handle = internal global ptr null, align 8
@.str.1202 = private unnamed_addr constant [9 x i8] c"camel-v1\00", align 1
@.str.1203 = private unnamed_addr constant [9 x i8] c"camel-v2\00", align 1
@.str.1204 = private unnamed_addr constant [9 x i8] c"camel-v3\00", align 1
@.str.1205 = private unnamed_addr constant [9 x i8] c"camel-v4\00", align 1
@camel_rose_ctx = internal global %struct._rose_ctx_t zeroinitializer, align 8
@.str.1206 = private unnamed_addr constant [20 x i8] c"camel.ros.local.arg\00", align 1
@.str.1207 = private unnamed_addr constant [40 x i8] c"CAMEL Operation Argument (local opcode)\00", align 1
@.str.1208 = private unnamed_addr constant [20 x i8] c"camel.ros.local.res\00", align 1
@.str.1209 = private unnamed_addr constant [38 x i8] c"CAMEL Operation Result (local opcode)\00", align 1
@.str.1210 = private unnamed_addr constant [20 x i8] c"camel.ros.local.err\00", align 1
@.str.1211 = private unnamed_addr constant [27 x i8] c"CAMEL Error (local opcode)\00", align 1
@.str.1212 = private unnamed_addr constant [4 x i8] c"146\00", align 1
@.str.1213 = private unnamed_addr constant [12 x i8] c"date.format\00", align 1
@.str.1214 = private unnamed_addr constant [12 x i8] c"Date Format\00", align 1
@.str.1215 = private unnamed_addr constant [36 x i8] c"The date format: (DD/MM) or (MM/DD)\00", align 1
@date_format = internal global i32 1, align 4
@.str.1216 = private unnamed_addr constant [9 x i8] c"tcap.ssn\00", align 1
@.str.1217 = private unnamed_addr constant [10 x i8] c"TCAP SSNs\00", align 1
@.str.1218 = private unnamed_addr constant [38 x i8] c"TCAP Subsystem numbers used for Camel\00", align 1
@.str.1219 = private unnamed_addr constant [4 x i8] c"srt\00", align 1
@.str.1220 = private unnamed_addr constant [14 x i8] c"persistentsrt\00", align 1
@.str.1221 = private unnamed_addr constant [25 x i8] c"Persistent stats for SRT\00", align 1
@.str.1222 = private unnamed_addr constant [29 x i8] c"Statistics for Response Time\00", align 1
@gcamel_PersistentSRT = internal global i8 0, align 1
@srt_calls = internal global ptr null, align 8
@camel_tap = internal global i32 0, align 4

; Function Attrs: null_pointer_is_valid sspstrong uwtable
define hidden void @proto_register_camel() #0 {
  %1 = alloca ptr, align 8
  %2 = alloca ptr, align 8
  call void @llvm.lifetime.start.p0(i64 8, ptr %1) #11
  call void @llvm.lifetime.start.p0(i64 8, ptr %2) #11
  %3 = call i32 @proto_register_protocol(ptr noundef @.str.1200, ptr noundef @.str.1198, ptr noundef @.str.1201)
  store i32 %3, ptr @proto_camel, align 4
  %4 = load i32, ptr @proto_camel, align 4
  %5 = call ptr @register_dissector(ptr noundef @.str.1201, ptr noundef @dissect_camel, i32 noundef %4)
  store ptr %5, ptr @camel_handle, align 8
  %6 = load i32, ptr @proto_camel, align 4
  %7 = call ptr @register_dissector(ptr noundef @.str.1202, ptr noundef @dissect_camel_v1, i32 noundef %6)
  store ptr %7, ptr @camel_v1_handle, align 8
  %8 = load i32, ptr @proto_camel, align 4
  %9 = call ptr @register_dissector(ptr noundef @.str.1203, ptr noundef @dissect_camel_v2, i32 noundef %8)
  store ptr %9, ptr @camel_v2_handle, align 8
  %10 = load i32, ptr @proto_camel, align 4
  %11 = call ptr @register_dissector(ptr noundef @.str.1204, ptr noundef @dissect_camel_v3, i32 noundef %10)
  store ptr %11, ptr @camel_v3_handle, align 8
  %12 = load i32, ptr @proto_camel, align 4
  %13 = call ptr @register_dissector(ptr noundef @.str.1205, ptr noundef @dissect_camel_v4, i32 noundef %12)
  store ptr %13, ptr @camel_v4_handle, align 8
  %14 = load i32, ptr @proto_camel, align 4
  call void @proto_register_field_array(i32 noundef %14, ptr noundef @proto_register_camel.hf, i32 noundef 515)
  call void @proto_register_subtree_array(ptr noundef @proto_register_camel.ett, i32 noundef 218)
  %15 = load i32, ptr @proto_camel, align 4
  %16 = call ptr @expert_register_protocol(i32 noundef %15)
  store ptr %16, ptr %2, align 8
  %17 = load ptr, ptr %2, align 8
  call void @expert_register_field_array(ptr noundef %17, ptr noundef @proto_register_camel.ei, i32 noundef 5)
  call void @rose_ctx_init(ptr noundef @camel_rose_ctx)
  %18 = load i32, ptr @proto_camel, align 4
  %19 = call ptr @register_dissector_table(ptr noundef @.str.1206, ptr noundef @.str.1207, i32 noundef %18, i32 noundef 7, i32 noundef 2)
  store ptr %19, ptr getelementptr inbounds nuw (%struct._rose_ctx_t, ptr @camel_rose_ctx, i32 0, i32 2), align 8
  %20 = load i32, ptr @proto_camel, align 4
  %21 = call ptr @register_dissector_table(ptr noundef @.str.1208, ptr noundef @.str.1209, i32 noundef %20, i32 noundef 7, i32 noundef 2)
  store ptr %21, ptr getelementptr inbounds nuw (%struct._rose_ctx_t, ptr @camel_rose_ctx, i32 0, i32 4), align 8
  %22 = load i32, ptr @proto_camel, align 4
  %23 = call ptr @register_dissector_table(ptr noundef @.str.1210, ptr noundef @.str.1211, i32 noundef %22, i32 noundef 7, i32 noundef 2)
  store ptr %23, ptr getelementptr inbounds nuw (%struct._rose_ctx_t, ptr @camel_rose_ctx, i32 0, i32 6), align 8
  %24 = call ptr @wmem_epan_scope()
  %25 = call i32 @range_convert_str(ptr noundef %24, ptr noundef @global_ssn_range, ptr noundef @.str.1212, i32 noundef 254)
  %26 = load i32, ptr @proto_camel, align 4
  %27 = call ptr @prefs_register_protocol(i32 noundef %26, ptr noundef @proto_reg_handoff_camel)
  store ptr %27, ptr %1, align 8
  %28 = load ptr, ptr %1, align 8
  call void @prefs_register_enum_preference(ptr noundef %28, ptr noundef @.str.1213, ptr noundef @.str.1214, ptr noundef @.str.1215, ptr noundef @date_format, ptr noundef @date_options, i1 noundef zeroext false)
  %29 = load ptr, ptr %1, align 8
  call void @prefs_register_range_preference(ptr noundef %29, ptr noundef @.str.1216, ptr noundef @.str.1217, ptr noundef @.str.1218, ptr noundef @global_ssn_range, i32 noundef 254)
  %30 = load ptr, ptr %1, align 8
  call void @prefs_register_obsolete_preference(ptr noundef %30, ptr noundef @.str.1219)
  %31 = load ptr, ptr %1, align 8
  call void @prefs_register_bool_preference(ptr noundef %31, ptr noundef @.str.1220, ptr noundef @.str.1221, ptr noundef @.str.1222, ptr noundef @gcamel_PersistentSRT)
  call void @register_init_routine(ptr noundef @camelsrt_init_routine)
  %32 = call ptr @wmem_epan_scope()
  %33 = call ptr @wmem_file_scope()
  %34 = call noalias ptr @wmem_map_new_autoreset(ptr noundef %32, ptr noundef %33, ptr noundef @camelsrt_call_hash, ptr noundef @camelsrt_call_equal)
  store ptr %34, ptr @srt_calls, align 8
  %35 = call i32 @register_tap(ptr noundef @.str.1198)
  store i32 %35, ptr @camel_tap, align 4
  %36 = load i32, ptr @proto_camel, align 4
  call void @register_srt_table(i32 noundef %36, ptr noundef @.str.1198, i32 noundef 1, ptr noundef @camelstat_packet, ptr noundef @camelstat_init, ptr noundef null)
  call void @register_stat_tap_table_ui(ptr noundef @proto_register_camel.camel_stat_table)
  call void @llvm.lifetime.end.p0(i64 8, ptr %2) #11
  call void @llvm.lifetime.end.p0(i64 8, ptr %1) #11
  ret void
}