; Function Attrs: null_pointer_is_valid sspstrong uwtable
define hidden void @proto_register_camel() local_unnamed_addr #0 {
  %1 = tail call i32 @proto_register_protocol(ptr noundef nonnull @.str.1200, ptr noundef nonnull @.str.1198, ptr noundef nonnull @.str.1201)
  store i32 %1, ptr @proto_camel, align 4
  %2 = tail call ptr @register_dissector(ptr noundef nonnull @.str.1201, ptr noundef nonnull @dissect_camel, i32 noundef %1)
  store ptr %2, ptr @camel_handle, align 8
  %3 = load i32, ptr @proto_camel, align 4
  %4 = tail call ptr @register_dissector(ptr noundef nonnull @.str.1202, ptr noundef nonnull @dissect_camel_v1, i32 noundef %3)
  store ptr %4, ptr @camel_v1_handle, align 8
  %5 = load i32, ptr @proto_camel, align 4
  %6 = tail call ptr @register_dissector(ptr noundef nonnull @.str.1203, ptr noundef nonnull @dissect_camel_v2, i32 noundef %5)
  store ptr %6, ptr @camel_v2_handle, align 8
  %7 = load i32, ptr @proto_camel, align 4
  %8 = tail call ptr @register_dissector(ptr noundef nonnull @.str.1204, ptr noundef nonnull @dissect_camel_v3, i32 noundef %7)
  store ptr %8, ptr @camel_v3_handle, align 8
  %9 = load i32, ptr @proto_camel, align 4
  %10 = tail call ptr @register_dissector(ptr noundef nonnull @.str.1205, ptr noundef nonnull @dissect_camel_v4, i32 noundef %9)
  store ptr %10, ptr @camel_v4_handle, align 8
  %11 = load i32, ptr @proto_camel, align 4
  tail call void @proto_register_field_array(i32 noundef %11, ptr noundef nonnull @proto_register_camel.hf, i32 noundef 515)
  tail call void @proto_register_subtree_array(ptr noundef nonnull @proto_register_camel.ett, i32 noundef 218)
  %12 = load i32, ptr @proto_camel, align 4
  %13 = tail call ptr @expert_register_protocol(i32 noundef %12)
  tail call void @expert_register_field_array(ptr noundef %13, ptr noundef nonnull @proto_register_camel.ei, i32 noundef 5)
  tail call void @rose_ctx_init(ptr noundef nonnull @camel_rose_ctx)
  %14 = load i32, ptr @proto_camel, align 4
  %15 = tail call ptr @register_dissector_table(ptr noundef nonnull @.str.1206, ptr noundef nonnull @.str.1207, i32 noundef %14, i32 noundef 7, i32 noundef 2)
  store ptr %15, ptr getelementptr inbounds nuw (i8, ptr @camel_rose_ctx, i64 16), align 8
  %16 = load i32, ptr @proto_camel, align 4
  %17 = tail call ptr @register_dissector_table(ptr noundef nonnull @.str.1208, ptr noundef nonnull @.str.1209, i32 noundef %16, i32 noundef 7, i32 noundef 2)
  store ptr %17, ptr getelementptr inbounds nuw (i8, ptr @camel_rose_ctx, i64 32), align 8
  %18 = load i32, ptr @proto_camel, align 4
  %19 = tail call ptr @register_dissector_table(ptr noundef nonnull @.str.1210, ptr noundef nonnull @.str.1211, i32 noundef %18, i32 noundef 7, i32 noundef 2)
  store ptr %19, ptr getelementptr inbounds nuw (i8, ptr @camel_rose_ctx, i64 48), align 8
  %20 = tail call ptr @wmem_epan_scope()
  %21 = tail call i32 @range_convert_str(ptr noundef %20, ptr noundef nonnull @global_ssn_range, ptr noundef nonnull @.str.1212, i32 noundef 254)
  %22 = load i32, ptr @proto_camel, align 4
  %23 = tail call ptr @prefs_register_protocol(i32 noundef %22, ptr noundef nonnull @proto_reg_handoff_camel)
  tail call void @prefs_register_enum_preference(ptr noundef %23, ptr noundef nonnull @.str.1213, ptr noundef nonnull @.str.1214, ptr noundef nonnull @.str.1215, ptr noundef nonnull @date_format, ptr noundef nonnull @date_options, i1 noundef zeroext false)
  tail call void @prefs_register_range_preference(ptr noundef %23, ptr noundef nonnull @.str.1216, ptr noundef nonnull @.str.1217, ptr noundef nonnull @.str.1218, ptr noundef nonnull @global_ssn_range, i32 noundef 254)
  tail call void @prefs_register_obsolete_preference(ptr noundef %23, ptr noundef nonnull @.str.1219)
  tail call void @prefs_register_bool_preference(ptr noundef %23, ptr noundef nonnull @.str.1220, ptr noundef nonnull @.str.1221, ptr noundef nonnull @.str.1222, ptr noundef nonnull @gcamel_PersistentSRT)
  tail call void @register_init_routine(ptr noundef nonnull @camelsrt_init_routine)
  %24 = tail call ptr @wmem_epan_scope()
  %25 = tail call ptr @wmem_file_scope()
  %26 = tail call noalias ptr @wmem_map_new_autoreset(ptr noundef %24, ptr noundef %25, ptr noundef nonnull @camelsrt_call_hash, ptr noundef nonnull @camelsrt_call_equal)
  store ptr %26, ptr @srt_calls, align 8
  %27 = tail call i32 @register_tap(ptr noundef nonnull @.str.1198)
  store i32 %27, ptr @camel_tap, align 4
  %28 = load i32, ptr @proto_camel, align 4
  tail call void @register_srt_table(i32 noundef %28, ptr noundef nonnull @.str.1198, i32 noundef 1, ptr noundef nonnull @camelstat_packet, ptr noundef nonnull @camelstat_init, ptr noundef null)
  tail call void @register_stat_tap_table_ui(ptr noundef nonnull @proto_register_camel.camel_stat_table)
  ret void
}